; Function Attrs: mustprogress nounwind uwtable
define dso_local void @_ZNK4llvm17ScheduleDAGInstrs17getGraphNodeLabelB5cxx11EPKNS_5SUnitE(ptr dead_on_unwind noalias nonnull writable sret(%"class.std::__cxx11::basic_string") align 8 %0, ptr noundef nonnull readnone align 8 dereferenceable(2624) %1, ptr noundef readonly %2) unnamed_addr #0 align 2 {
  %4 = alloca %"class.llvm::raw_string_ostream", align 8
  tail call void @_ZNSt7__cxx1112basic_stringIcSt11char_traitsIcESaIcEEC1Ev(ptr noundef nonnull align 8 dereferenceable(32) %0) #23
  %5 = getelementptr inbounds nuw i8, ptr %4, i64 8
  store i32 0, ptr %5, align 8
  %6 = getelementptr inbounds nuw i8, ptr %4, i64 40
  store i8 0, ptr %6, align 8
  %7 = getelementptr inbounds nuw i8, ptr %4, i64 44
  store i32 1, ptr %7, align 4
  %8 = getelementptr inbounds nuw i8, ptr %4, i64 16
  call void @llvm.memset.p0.i64(ptr noundef nonnull align 8 dereferenceable(24) %8, i8 0, i64 24, i1 false)
  store ptr getelementptr inbounds inrange(-16, 104) (i8, ptr @_ZTVN4llvm18raw_string_ostreamE, i64 16), ptr %4, align 8
  %9 = getelementptr inbounds nuw i8, ptr %4, i64 48
  store ptr %0, ptr %9, align 8
  call void @_ZN4llvm11raw_ostream16SetBufferAndModeEPcmNS0_10BufferKindE(ptr noundef nonnull align 8 dereferenceable(48) %4, ptr noundef null, i64 noundef 0, i32 noundef 0) #23
  %10 = getelementptr inbounds nuw i8, ptr %1, i64 72
  %11 = icmp eq ptr %2, %10
  br i1 %11, label %12, label %26

12:                                               ; preds = %3
  %13 = getelementptr inbounds nuw i8, ptr %4, i64 24
  %14 = load ptr, ptr %13, align 8
  %15 = getelementptr inbounds nuw i8, ptr %4, i64 32
  %16 = load ptr, ptr %15, align 8
  %17 = ptrtoint ptr %14 to i64
  %18 = ptrtoint ptr %16 to i64
  %19 = sub i64 %17, %18
  %20 = icmp ult i64 %19, 7
  br i1 %20, label %21, label %23

21:                                               ; preds = %12
  %22 = call noundef nonnull align 8 dereferenceable(48) ptr @_ZN4llvm11raw_ostream5writeEPKcm(ptr noundef nonnull align 8 dereferenceable(48) %4, ptr noundef nonnull @.str.13, i64 noundef 7) #23
  br label %_ZN4llvm11raw_ostreamlsEPKc.exit

23:                                               ; preds = %12
  call void @llvm.memcpy.p0.p0.i64(ptr noundef nonnull align 1 dereferenceable(7) %16, ptr noundef nonnull align 1 dereferenceable(7) @.str.13, i64 7, i1 false)
  %24 = load ptr, ptr %15, align 8
  %25 = getelementptr inbounds i8, ptr %24, i64 7
  store ptr %25, ptr %15, align 8
  br label %_ZN4llvm11raw_ostreamlsEPKc.exit

26:                                               ; preds = %3
  %27 = getelementptr inbounds nuw i8, ptr %1, i64 328
  %28 = icmp eq ptr %2, %27
  br i1 %28, label %29, label %43

29:                                               ; preds = %26
  %30 = getelementptr inbounds nuw i8, ptr %4, i64 24
  %31 = load ptr, ptr %30, align 8
  %32 = getelementptr inbounds nuw i8, ptr %4, i64 32
  %33 = load ptr, ptr %32, align 8
  %34 = ptrtoint ptr %31 to i64
  %35 = ptrtoint ptr %33 to i64
  %36 = sub i64 %34, %35
  %37 = icmp ult i64 %36, 6
  br i1 %37, label %38, label %40

38:                                               ; preds = %29
  %39 = call noundef nonnull align 8 dereferenceable(48) ptr @_ZN4llvm11raw_ostream5writeEPKcm(ptr noundef nonnull align 8 dereferenceable(48) %4, ptr noundef nonnull @.str.14, i64 noundef 6) #23
  br label %_ZN4llvm11raw_ostreamlsEPKc.exit

40:                                               ; preds = %29
  call void @llvm.memcpy.p0.p0.i64(ptr noundef nonnull align 1 dereferenceable(6) %33, ptr noundef nonnull align 1 dereferenceable(6) @.str.14, i64 6, i1 false)
  %41 = load ptr, ptr %32, align 8
  %42 = getelementptr inbounds i8, ptr %41, i64 6
  store ptr %42, ptr %32, align 8
  br label %_ZN4llvm11raw_ostreamlsEPKc.exit

43:                                               ; preds = %26
  %44 = load ptr, ptr %2, align 8
  call void @_ZNK4llvm12MachineInstr5printERNS_11raw_ostreamEbbbbPKNS_15TargetInstrInfoE(ptr noundef nonnull align 8 dereferenceable(70) %44, ptr noundef nonnull align 8 dereferenceable(48) %4, i1 noundef zeroext true, i1 noundef zeroext false, i1 noundef zeroext false, i1 noundef zeroext true, ptr noundef null) #23
  br label %_ZN4llvm11raw_ostreamlsEPKc.exit

_ZN4llvm11raw_ostreamlsEPKc.exit:                 ; preds = %40, %38, %23, %21, %43
  call void @_ZN4llvm11raw_ostreamD2Ev(ptr noundef nonnull align 8 dereferenceable(48) %4) #23
  ret void
}